target datalayout = "e-m:e-p270:32:32-p271:32:32-p272:64:64-i64:64-i128:128-f80:128-n8:16:32:64-S128"
target triple = "x86_64-unknown-linux-gnu"

%"class.smt::eq_justification" = type { ptr }
%"class.smt::theory_array_base.base" = type <{ %"class.smt::theory.base", i8, [2 x i8], i32, [4 x i8], %class.svector.1, %class.ptr_vector, %class.svector.3, %class.svector.3, %class.svector.3, %class.scoped_ptr, %class.ptr_vector.5, %class.obj_map, %class.ptr_hashtable, %class.svector.9, ptr, %class.ptr_vector, %class.ptr_vector.11, %class.svector.1, %class.obj_map.13, %class.ptr_vector, %class.ptr_vector.18, i8 }>
%"class.smt::theory.base" = type <{ ptr, i32, [4 x i8], ptr, ptr, %class.ptr_vector, %class.svector, i32, i8 }>
%class.svector = type { %class.vector.0 }
%class.vector.0 = type { ptr }
%class.svector.3 = type { %class.vector.4 }
%class.vector.4 = type { ptr }
%class.scoped_ptr = type { ptr }
%class.ptr_vector.5 = type { %class.vector.6 }
%class.vector.6 = type { ptr }
%class.obj_map = type { %class.core_hashtable }
%class.core_hashtable = type <{ ptr, i32, i32, i32, [4 x i8] }>
%class.ptr_hashtable = type { %class.core_hashtable.base.8, [4 x i8] }
%class.core_hashtable.base.8 = type <{ ptr, i32, i32, i32 }>
%class.svector.9 = type { %class.vector.10 }
%class.vector.10 = type { ptr }
%class.ptr_vector.11 = type { %class.vector.12 }
%class.vector.12 = type { ptr }
%class.svector.1 = type { %class.vector.2 }
%class.vector.2 = type { ptr }
%class.obj_map.13 = type { %class.core_hashtable.14 }
%class.core_hashtable.14 = type <{ ptr, i32, i32, i32, [4 x i8] }>
%class.ptr_vector.18 = type { %class.vector.19 }
%class.vector.19 = type { ptr }
%class.ptr_vector.20 = type { %class.vector.21 }
%class.vector.21 = type { ptr }
%"struct.smt::theory_array_stats" = type { i32, i32, i32, i32, i32, i32, i32, i32, i32, i32, i32, i32, i32 }
%class.union_find = type { ptr, ptr, %class.svector, %class.svector, %class.svector, %"class.union_find<smt::theory_array>::mk_var_trail" }
%"class.union_find<smt::theory_array>::mk_var_trail" = type { %class.trail, ptr }
%class.trail = type { ptr }
%class.trail_stack = type { %class.ptr_vector.22, %class.svector, %class.region }
%class.ptr_vector.22 = type { %class.vector.23 }
%class.vector.23 = type { ptr }
%class.region = type { ptr, ptr, ptr, ptr, ptr }
%class.ptr_vector = type { %class.vector }
%class.vector = type { ptr }
%"class.smt::theory_array" = type <{ %"class.smt::theory_array_base.base", [7 x i8], %class.ptr_vector.20, ptr, %"struct.smt::theory_array_stats", [4 x i8], %class.union_find, %class.trail_stack, i32, [4 x i8] }>
%struct.theory_array_params = type <{ i8, i8, [2 x i8], i32, i8, i8, [2 x i8], i32, i8, i8, i8, i8, i32, i8, [3 x i8] }>
%"struct.smt::theory_array::var_data" = type <{ %class.ptr_vector, %class.ptr_vector, %class.ptr_vector, i8, i8, i8, [5 x i8] }>
%"class.smt::enode" = type { ptr, ptr, ptr, ptr, i32, i32, i32, i16, i32, i8, i8, %class.ptr_vector, %class.id_var_list, %"struct.smt::trans_justification", %class.approx_set, %class.approx_set, [0 x ptr] }
%class.id_var_list = type { i32, ptr }
%"struct.smt::trans_justification" = type { ptr, %"class.smt::eq_justification" }
%class.approx_set = type { %class.approx_set_tpl }
%class.approx_set_tpl = type { i64 }

; Function Attrs: mustprogress nounwind uwtable
define linkonce_odr hidden noundef nonnull align 4 dereferenceable(4) ptr @_ZNK6vectorIjLb0EjEixEj(ptr noundef nonnull align 8 dereferenceable(8) %this, i32 noundef %idx) #4 comdat align 2 {
entry:
  %this.addr = alloca ptr, align 8
  %idx.addr = alloca i32, align 4
  store ptr %this, ptr %this.addr, align 8
  store i32 %idx, ptr %idx.addr, align 4
  %this1 = load ptr, ptr %this.addr, align 8
  %m_data = getelementptr inbounds %class.vector.0, ptr %this1, i32 0, i32 0
  %0 = load ptr, ptr %m_data, align 8
  %1 = load i32, ptr %idx.addr, align 4
  %idxprom = zext i32 %1 to i64
  %arrayidx = getelementptr inbounds i32, ptr %0, i64 %idxprom
  ret ptr %arrayidx
}

; Function Attrs: mustprogress uwtable
define linkonce_odr hidden noundef i32 @_ZNK10union_findIN3smt12theory_arrayES1_E4findEj(ptr noundef nonnull align 8 dereferenceable(56) %this, i32 noundef %v) #5 comdat align 2 {
entry:
  %this.addr = alloca ptr, align 8
  %v.addr = alloca i32, align 4
  %new_v = alloca i32, align 4
  store ptr %this, ptr %this.addr, align 8
  store i32 %v, ptr %v.addr, align 4
  %this1 = load ptr, ptr %this.addr, align 8
  br label %while.body

while.body:                                       ; preds = %if.end, %entry
  %m_find = getelementptr inbounds %class.union_find, ptr %this1, i32 0, i32 2
  %0 = load i32, ptr %v.addr, align 4
  %call = call noundef nonnull align 4 dereferenceable(4) ptr @_ZNK6vectorIjLb0EjEixEj(ptr noundef nonnull align 8 dereferenceable(8) %m_find, i32 noundef %0)
  %1 = load i32, ptr %call, align 4
  store i32 %1, ptr %new_v, align 4
  %2 = load i32, ptr %new_v, align 4
  %3 = load i32, ptr %v.addr, align 4
  %cmp = icmp eq i32 %2, %3
  br i1 %cmp, label %if.then, label %if.end

if.then:                                          ; preds = %while.body
  %4 = load i32, ptr %v.addr, align 4
  ret i32 %4

if.end:                                           ; preds = %while.body
  %5 = load i32, ptr %new_v, align 4
  store i32 %5, ptr %v.addr, align 4
  br label %while.body, !llvm.loop !30
}

; Function Attrs: mustprogress nounwind uwtable
define linkonce_odr hidden noundef zeroext i1 @_ZNK3smt5enode6is_cgrEv(ptr noundef nonnull align 8 dereferenceable(112) %this) #4 comdat align 2 {
entry:
  %this.addr = alloca ptr, align 8
  store ptr %this, ptr %this.addr, align 8
  %this1 = load ptr, ptr %this.addr, align 8
  %m_cg = getelementptr inbounds %"class.smt::enode", ptr %this1, i32 0, i32 3
  %0 = load ptr, ptr %m_cg, align 8
  %cmp = icmp eq ptr %0, %this1
  ret i1 %cmp
}

; Function Attrs: mustprogress nounwind uwtable
define linkonce_odr hidden noundef nonnull align 8 dereferenceable(8) ptr @_ZN6vectorIPN3smt5enodeELb0EjEixEj(ptr noundef nonnull align 8 dereferenceable(8) %this, i32 noundef %idx) #4 comdat align 2 {
entry:
  %this.addr = alloca ptr, align 8
  %idx.addr = alloca i32, align 4
  store ptr %this, ptr %this.addr, align 8
  store i32 %idx, ptr %idx.addr, align 4
  %this1 = load ptr, ptr %this.addr, align 8
  %m_data = getelementptr inbounds %class.vector, ptr %this1, i32 0, i32 0
  %0 = load ptr, ptr %m_data, align 8
  %1 = load i32, ptr %idx.addr, align 4
  %idxprom = zext i32 %1 to i64
  %arrayidx = getelementptr inbounds ptr, ptr %0, i64 %idxprom
  ret ptr %arrayidx
}

; Function Attrs: mustprogress nounwind uwtable
define linkonce_odr hidden noundef i32 @_ZNK6vectorIPN3smt5enodeELb0EjE4sizeEv(ptr noundef nonnull align 8 dereferenceable(8) %this) #4 comdat align 2 {
entry:
  %retval = alloca i32, align 4
  %this.addr = alloca ptr, align 8
  store ptr %this, ptr %this.addr, align 8
  %this1 = load ptr, ptr %this.addr, align 8
  %m_data = getelementptr inbounds %class.vector, ptr %this1, i32 0, i32 0
  %0 = load ptr, ptr %m_data, align 8
  %cmp = icmp eq ptr %0, null
  br i1 %cmp, label %if.then, label %if.end

if.then:                                          ; preds = %entry
  store i32 0, ptr %retval, align 4
  br label %return

if.end:                                           ; preds = %entry
  %m_data2 = getelementptr inbounds %class.vector, ptr %this1, i32 0, i32 0
  %1 = load ptr, ptr %m_data2, align 8
  %arrayidx = getelementptr inbounds i32, ptr %1, i64 -1
  %2 = load i32, ptr %arrayidx, align 4
  store i32 %2, ptr %retval, align 4
  br label %return

return:                                           ; preds = %if.end, %if.then
  %3 = load i32, ptr %retval, align 4
  ret i32 %3
}

; Function Attrs: mustprogress nounwind uwtable
define linkonce_odr hidden noundef nonnull align 8 dereferenceable(8) ptr @_ZN6vectorIPN3smt12theory_array8var_dataELb0EjEixEj(ptr noundef nonnull align 8 dereferenceable(8) %this, i32 noundef %idx) #4 comdat align 2 {
entry:
  %this.addr = alloca ptr, align 8
  %idx.addr = alloca i32, align 4
  store ptr %this, ptr %this.addr, align 8
  store i32 %idx, ptr %idx.addr, align 4
  %this1 = load ptr, ptr %this.addr, align 8
  %m_data = getelementptr inbounds %class.vector.21, ptr %this1, i32 0, i32 0
  %0 = load ptr, ptr %m_data, align 8
  %1 = load i32, ptr %idx.addr, align 4
  %idxprom = zext i32 %1 to i64
  %arrayidx = getelementptr inbounds ptr, ptr %0, i64 %idxprom
  ret ptr %arrayidx
}

; Function Attrs: mustprogress uwtable
define linkonce_odr hidden noundef i32 @_ZNK3smt12theory_array4findEi(ptr noundef nonnull align 8 dereferenceable(444) %this, i32 noundef %v) #5 comdat align 2 {
entry:
  %this.addr = alloca ptr, align 8
  %v.addr = alloca i32, align 4
  store ptr %this, ptr %this.addr, align 8
  store i32 %v, ptr %v.addr, align 4
  %this1 = load ptr, ptr %this.addr, align 8
  %m_find = getelementptr inbounds %"class.smt::theory_array", ptr %this1, i32 0, i32 6
  %0 = load i32, ptr %v.addr, align 4
  %call = call noundef i32 @_ZNK10union_findIN3smt12theory_arrayES1_E4findEj(ptr noundef nonnull align 8 dereferenceable(56) %m_find, i32 noundef %0)
  ret i32 %call
}

; Function Attrs: mustprogress uwtable
define hidden noundef zeroext i1 @_ZN3smt17theory_array_full33instantiate_parent_stores_defaultEi(ptr noundef nonnull align 8 dereferenceable(608) %this, i32 noundef %v) #5 align 2 {
entry:
  %this.addr = alloca ptr, align 8
  %v.addr = alloca i32, align 4
  %d = alloca ptr, align 8
  %result = alloca i8, align 1
  %i = alloca i32, align 4
  %store = alloca ptr, align 8
  store ptr %this, ptr %this.addr, align 8
  store i32 %v, ptr %v.addr, align 4
  %this1 = load ptr, ptr %this.addr, align 8
  %0 = load i32, ptr %v.addr, align 4
  %call = call noundef i32 @_ZNK3smt12theory_array4findEi(ptr noundef nonnull align 8 dereferenceable(444) %this1, i32 noundef %0)
  store i32 %call, ptr %v.addr, align 4
  %m_var_data = getelementptr inbounds %"class.smt::theory_array", ptr %this1, i32 0, i32 2
  %1 = load i32, ptr %v.addr, align 4
  %call2 = call noundef nonnull align 8 dereferenceable(8) ptr @_ZN6vectorIPN3smt12theory_array8var_dataELb0EjEixEj(ptr noundef nonnull align 8 dereferenceable(8) %m_var_data, i32 noundef %1)
  %2 = load ptr, ptr %call2, align 8
  store ptr %2, ptr %d, align 8
  store i8 0, ptr %result, align 1
  store i32 0, ptr %i, align 4
  br label %for.cond

for.cond:                                         ; preds = %for.inc, %entry
  %3 = load i32, ptr %i, align 4
  %4 = load ptr, ptr %d, align 8
  %m_parent_stores = getelementptr inbounds %"struct.smt::theory_array::var_data", ptr %4, i32 0, i32 2
  %call3 = call noundef i32 @_ZNK6vectorIPN3smt5enodeELb0EjE4sizeEv(ptr noundef nonnull align 8 dereferenceable(8) %m_parent_stores)
  %cmp = icmp ult i32 %3, %call3
  br i1 %cmp, label %for.body, label %for.end

for.body:                                         ; preds = %for.cond
  %5 = load ptr, ptr %d, align 8
  %m_parent_stores4 = getelementptr inbounds %"struct.smt::theory_array::var_data", ptr %5, i32 0, i32 2
  %6 = load i32, ptr %i, align 4
  %call5 = call noundef nonnull align 8 dereferenceable(8) ptr @_ZN6vectorIPN3smt5enodeELb0EjEixEj(ptr noundef nonnull align 8 dereferenceable(8) %m_parent_stores4, i32 noundef %6)
  %7 = load ptr, ptr %call5, align 8
  store ptr %7, ptr %store, align 8
  %m_params = getelementptr inbounds %"class.smt::theory_array", ptr %this1, i32 0, i32 3
  %8 = load ptr, ptr %m_params, align 8
  %m_array_cg = getelementptr inbounds %struct.theory_array_params, ptr %8, i32 0, i32 9
  %9 = load i8, ptr %m_array_cg, align 1
  %tobool = trunc i8 %9 to i1
  br i1 %tobool, label %lor.lhs.false, label %land.lhs.true

lor.lhs.false:                                    ; preds = %for.body
  %10 = load ptr, ptr %store, align 8
  %call6 = call noundef zeroext i1 @_ZNK3smt5enode6is_cgrEv(ptr noundef nonnull align 8 dereferenceable(112) %10)
  br i1 %call6, label %land.lhs.true, label %if.end

land.lhs.true:                                    ; preds = %lor.lhs.false, %for.body
  %11 = load ptr, ptr %store, align 8
  %call7 = call noundef zeroext i1 @_ZN3smt17theory_array_full31instantiate_default_store_axiomEPNS_5enodeE(ptr noundef nonnull align 8 dereferenceable(608) %this1, ptr noundef %11)
  br i1 %call7, label %if.then, label %if.end

if.then:                                          ; preds = %land.lhs.true
  store i8 1, ptr %result, align 1
  br label %if.end

if.end:                                           ; preds = %if.then, %land.lhs.true, %lor.lhs.false
  br label %for.inc

for.inc:                                          ; preds = %if.end
  %12 = load i32, ptr %i, align 4
  %inc = add i32 %12, 1
  store i32 %inc, ptr %i, align 4
  br label %for.cond, !llvm.loop !20

for.end:                                          ; preds = %for.cond
  %13 = load i8, ptr %result, align 1
  %tobool8 = trunc i8 %13 to i1
  ret i1 %tobool8
}