; Function Attrs: mustprogress uwtable
define hidden noundef zeroext i1 @_ZN3smt17theory_array_full33instantiate_parent_stores_defaultEi(ptr noundef nonnull align 8 dereferenceable(608) %this, i32 noundef %v) local_unnamed_addr #3 align 2 {
entry:
  %m_find.i.i = getelementptr inbounds i8, ptr %this, i64 344
  %0 = load ptr, ptr %m_find.i.i, align 8
  br label %while.body.i.i

while.body.i.i:                                   ; preds = %while.body.i.i, %entry
  %v.addr.0.i.i = phi i32 [ %v, %entry ], [ %1, %while.body.i.i ]
  %idxprom.i.i.i = zext i32 %v.addr.0.i.i to i64
  %arrayidx.i.i.i = getelementptr inbounds i32, ptr %0, i64 %idxprom.i.i.i
  %1 = load i32, ptr %arrayidx.i.i.i, align 4
  %cmp.i.i = icmp eq i32 %1, %v.addr.0.i.i
  br i1 %cmp.i.i, label %_ZNK3smt12theory_array4findEi.exit, label %while.body.i.i, !llvm.loop !9

_ZNK3smt12theory_array4findEi.exit:               ; preds = %while.body.i.i
  %m_var_data = getelementptr inbounds i8, ptr %this, i64 256
  %2 = load ptr, ptr %m_var_data, align 8
  %arrayidx.i = getelementptr inbounds ptr, ptr %2, i64 %idxprom.i.i.i
  %3 = load ptr, ptr %arrayidx.i, align 8
  %m_parent_stores = getelementptr inbounds i8, ptr %3, i64 16
  %m_params = getelementptr inbounds i8, ptr %this, i64 264
  br label %for.cond

for.cond:                                         ; preds = %for.inc, %_ZNK3smt12theory_array4findEi.exit
  %indvars.iv = phi i64 [ %indvars.iv.next, %for.inc ], [ 0, %_ZNK3smt12theory_array4findEi.exit ]
  %result.0 = phi i8 [ %result.1, %for.inc ], [ 0, %_ZNK3smt12theory_array4findEi.exit ]
  %4 = load ptr, ptr %m_parent_stores, align 8
  %cmp.i = icmp eq ptr %4, null
  br i1 %cmp.i, label %_ZNK6vectorIPN3smt5enodeELb0EjE4sizeEv.exit, label %if.end.i

if.end.i:                                         ; preds = %for.cond
  %arrayidx.i6 = getelementptr inbounds i8, ptr %4, i64 -4
  %5 = load i32, ptr %arrayidx.i6, align 4
  br label %_ZNK6vectorIPN3smt5enodeELb0EjE4sizeEv.exit

_ZNK6vectorIPN3smt5enodeELb0EjE4sizeEv.exit:      ; preds = %for.cond, %if.end.i
  %retval.0.i = phi i32 [ %5, %if.end.i ], [ 0, %for.cond ]
  %6 = zext i32 %retval.0.i to i64
  %cmp = icmp ult i64 %indvars.iv, %6
  br i1 %cmp, label %for.body, label %for.end

for.body:                                         ; preds = %_ZNK6vectorIPN3smt5enodeELb0EjE4sizeEv.exit
  %arrayidx.i8 = getelementptr inbounds ptr, ptr %4, i64 %indvars.iv
  %7 = load ptr, ptr %arrayidx.i8, align 8
  %8 = load ptr, ptr %m_params, align 8
  %m_array_cg = getelementptr inbounds i8, ptr %8, i64 17
  %9 = load i8, ptr %m_array_cg, align 1
  %10 = and i8 %9, 1
  %tobool.not = icmp eq i8 %10, 0
  br i1 %tobool.not, label %land.lhs.true, label %lor.lhs.false

lor.lhs.false:                                    ; preds = %for.body
  %m_cg.i = getelementptr inbounds i8, ptr %7, i64 24
  %11 = load ptr, ptr %m_cg.i, align 8
  %cmp.i9 = icmp eq ptr %11, %7
  br i1 %cmp.i9, label %land.lhs.true, label %for.inc

land.lhs.true:                                    ; preds = %lor.lhs.false, %for.body
  %call7 = tail call noundef zeroext i1 @_ZN3smt17theory_array_full31instantiate_default_store_axiomEPNS_5enodeE(ptr noundef nonnull align 8 dereferenceable(608) %this, ptr noundef %7)
  %spec.select = select i1 %call7, i8 1, i8 %result.0
  br label %for.inc

for.inc:                                          ; preds = %land.lhs.true, %lor.lhs.false
  %result.1 = phi i8 [ %result.0, %lor.lhs.false ], [ %spec.select, %land.lhs.true ]
  %indvars.iv.next = add nuw nsw i64 %indvars.iv, 1
  br label %for.cond, !llvm.loop !27

for.end:                                          ; preds = %_ZNK6vectorIPN3smt5enodeELb0EjE4sizeEv.exit
  %12 = and i8 %result.0, 1
  %tobool8 = icmp ne i8 %12, 0
  ret i1 %tobool8
}